ccopy_reg
_reconstructor
p0
(clistapizze.model.ListaPizze
ListaPizze
p1
c__builtin__
object
p2
Ntp3
Rp4
(dp5
Vlista_pizze
p6
(lp7
g0
(cpizza.model.Pizza
Pizza
p8
g2
Ntp9
Rp10
(dp11
Vnome
p12
VMargherita
p13
sVprezzo
p14
V4.00
p15
sVingredienti
p16
(lp17
(lp18
g0
(cmateria.model.Materia
Materia
p19
g2
Ntp20
Rp21
(dp22
g12
VFarina
p23
sVunita_misura
p24
Vhg
p25
sbaV10
p26
aa(lp27
g0
(g19
g2
Ntp28
Rp29
(dp30
g12
VLatte
p31
sg24
Vdl
p32
sbaV10
p33
aa(lp34
g0
(g19
g2
Ntp35
Rp36
(dp37
g12
Vpomodoro
p38
sg24
Vpz
p39
sbaV1
p40
aa(lp41
g0
(g19
g2
Ntp42
Rp43
(dp44
g12
VPassata di pomodoro
p45
sg24
Vl
p46
sbaV12
p47
aasbasb.